; Function Attrs: mustprogress uwtable
define void @_ZN11ByteViewTab19byteViewTextHoveredEi(ptr noundef nonnull align 8 dereferenceable(65) %0, i32 noundef %1) local_unnamed_addr #0 align 2 personality ptr @__gxx_personality_v0 {
  %3 = alloca %class.QVariant, align 8
  %4 = alloca %class.FieldInformation, align 8
  %5 = icmp sgt i32 %1, -1
  br i1 %5, label %6, label %26

6:                                                ; preds = %2
  %7 = getelementptr inbounds i8, ptr %0, i64 56
  %8 = load ptr, ptr %7, align 8
  %.not = icmp eq ptr %8, null
  br i1 %.not, label %26, label %9

9:                                                ; preds = %6
  %10 = tail call noundef ptr @_ZNK7QObject6senderEv(ptr noundef nonnull align 8 dereferenceable(16) %0)
  call void @_ZNK7QObject8propertyEPKc(ptr dead_on_unwind nonnull writable sret(%class.QVariant) align 8 %3, ptr noundef nonnull align 8 dereferenceable(16) %10, ptr noundef nonnull @.str.12)
  %11 = invoke noundef ptr @_Z13qvariant_castIPvET_RK8QVariant(ptr noundef nonnull align 8 dereferenceable(32) %3)
          to label %_ZN14VariantPointerI6tvbuffE5asPtrE8QVariant.exit unwind label %22

_ZN14VariantPointerI6tvbuffE5asPtrE8QVariant.exit: ; preds = %9
  call void @_ZN8QVariantD1Ev(ptr noundef nonnull align 8 dereferenceable(32) %3) #9
  %12 = load ptr, ptr %7, align 8
  %13 = getelementptr inbounds i8, ptr %12, i64 16
  %14 = load ptr, ptr %13, align 8
  %15 = icmp ne ptr %11, null
  %16 = icmp ne ptr %14, null
  %or.cond = select i1 %15, i1 %16, i1 false
  br i1 %or.cond, label %17, label %26

17:                                               ; preds = %_ZN14VariantPointerI6tvbuffE5asPtrE8QVariant.exit
  %18 = call ptr @proto_find_field_from_offset(ptr noundef nonnull %14, i32 noundef %1, ptr noundef nonnull %11)
  %.not16 = icmp eq ptr %18, null
  br i1 %.not16, label %26, label %19

19:                                               ; preds = %17
  call void @_ZN16FieldInformationC1EP10field_infoP7QObject(ptr noundef nonnull align 8 dereferenceable(40) %4, ptr noundef nonnull %18, ptr noundef nonnull %0)
  invoke void @_ZN11ByteViewTab23highlightedFieldChangedEP16FieldInformation(ptr noundef nonnull align 8 dereferenceable(65) %0, ptr noundef nonnull %4)
          to label %20 unwind label %24

20:                                               ; preds = %19
  invoke void @_ZN11ByteViewTab14fieldHighlightEP16FieldInformation(ptr noundef nonnull align 8 dereferenceable(65) %0, ptr noundef nonnull %4)
          to label %21 unwind label %24

21:                                               ; preds = %20
  call void @_ZN7QObjectD2Ev(ptr noundef nonnull align 8 dereferenceable(16) %4) #9
  br label %27

22:                                               ; preds = %9
  %23 = landingpad { ptr, i32 }
          cleanup
  call void @_ZN8QVariantD1Ev(ptr noundef nonnull align 8 dereferenceable(32) %3) #9
  br label %28

24:                                               ; preds = %20, %19
  %25 = landingpad { ptr, i32 }
          cleanup
  call void @_ZN7QObjectD2Ev(ptr noundef nonnull align 8 dereferenceable(16) %4) #9
  br label %28

26:                                               ; preds = %_ZN14VariantPointerI6tvbuffE5asPtrE8QVariant.exit, %17, %6, %2
  call void @_ZN11ByteViewTab14fieldHighlightEP16FieldInformation(ptr noundef nonnull align 8 dereferenceable(65) %0, ptr noundef null)
  br label %27

27:                                               ; preds = %26, %21
  ret void

28:                                               ; preds = %24, %22
  %.pn = phi { ptr, i32 } [ %25, %24 ], [ %23, %22 ]
  resume { ptr, i32 } %.pn
}